(dp1
S'bcub'
p2
(lp3
cnumpy.core.multiarray
_reconstruct
p4
(cnumpy
ndarray
p5
(I0
tS'b'
tRp6
(I1
(I3
tcnumpy
dtype
p7
(S'S2'
I0
I1
tRp8
(I3
S'|'
NNNI2
I1
I0
tbI00
S'0%0%0%'
tbag4
(g5
(I0
tS'b'
tRp9
(I1
(I3
tg7
(S'S2'
I0
I1
tRp10
(I3
S'|'
NNNI2
I1
I0
tbI00
S'0%0%0%'
tbag4
(g5
(I0
tS'b'
tRp11
(I1
(I3
tg7
(S'S3'
I0
I1
tRp12
(I3
S'|'
NNNI3
I1
I0
tbI00
S'93%47%15%'
tbag4
(g5
(I0
tS'b'
tRp13
(I1
(I3
tg7
(S'S3'
I0
I1
tRp14
(I3
S'|'
NNNI3
I1
I0
tbI00
S'44%98%23%'
tbag4
(g5
(I0
tS'b'
tRp15
(I1
(I3
tg7
(S'S3'
I0
I1
tRp16
(I3
S'|'
NNNI3
I1
I0
tbI00
S'19%88%01%'
tbag4
(g5
(I0
tS'b'
tRp17
(I1
(I3
tg7
(S'S3'
I0
I1
tRp18
(I3
S'|'
NNNI3
I1
I0
tbI00
S'19%88%01%'
tbag4
(g5
(I0
tS'b'
tRp19
(I1
(I3
tg7
(S'S3'
I0
I1
tRp20
(I3
S'|'
NNNI3
I1
I0
tbI00
S'71%84%48%'
tbag4
(g5
(I0
tS'b'
tRp21
(I1
(I3
tg7
(S'S3'
I0
I1
tRp22
(I3
S'|'
NNNI3
I1
I0
tbI00
S'71%84%48%'
tbasS'order_list'
p23
(lp24
S'test_sieve'
p25
aS'exact_match'
p26
aS'precise_constructs'
p27
aS'strict_head_matching_A'
p28
aS'strict_head_matching_B'
p29
aS'strict_head_matching_C'
p30
aS'relaxing_head_matching'
p31
aS'pronoun_sieve'
p32
asS'ceafm'
p33
(lp34
g4
(g5
(I0
tS'b'
tRp35
(I1
(I3
tg7
(S'S2'
I0
I1
tRp36
(I3
S'|'
NNNI2
I1
I0
tbI00
S'0%0%0%'
tbag4
(g5
(I0
tS'b'
tRp37
(I1
(I3
tg7
(S'S2'
I0
I1
tRp38
(I3
S'|'
NNNI2
I1
I0
tbI00
S'0%0%0%'
tbag4
(g5
(I0
tS'b'
tRp39
(I1
(I3
tg7
(S'S3'
I0
I1
tRp40
(I3
S'|'
NNNI3
I1
I0
tbI00
S'9%\x0003%43%'
tbag4
(g5
(I0
tS'b'
tRp41
(I1
(I3
tg7
(S'S3'
I0
I1
tRp42
(I3
S'|'
NNNI3
I1
I0
tbI00
S'76%53%87%'
tbag4
(g5
(I0
tS'b'
tRp43
(I1
(I3
tg7
(S'S3'
I0
I1
tRp44
(I3
S'|'
NNNI3
I1
I0
tbI00
S'92%1%\x0092%'
tbag4
(g5
(I0
tS'b'
tRp45
(I1
(I3
tg7
(S'S3'
I0
I1
tRp46
(I3
S'|'
NNNI3
I1
I0
tbI00
S'92%1%\x0092%'
tbag4
(g5
(I0
tS'b'
tRp47
(I1
(I3
tg7
(S'S3'
I0
I1
tRp48
(I3
S'|'
NNNI3
I1
I0
tbI00
S'76%1%\x0057%'
tbag4
(g5
(I0
tS'b'
tRp49
(I1
(I3
tg7
(S'S3'
I0
I1
tRp50
(I3
S'|'
NNNI3
I1
I0
tbI00
S'76%1%\x0057%'
tbasS'muc'
p51
(lp52
g4
(g5
(I0
tS'b'
tRp53
(I1
(I3
tg7
(S'S2'
I0
I1
tRp54
(I3
S'|'
NNNI2
I1
I0
tbI00
S'0%0%0%'
tbag4
(g5
(I0
tS'b'
tRp55
(I1
(I3
tg7
(S'S2'
I0
I1
tRp56
(I3
S'|'
NNNI2
I1
I0
tbI00
S'0%0%0%'
tbag4
(g5
(I0
tS'b'
tRp57
(I1
(I3
tg7
(S'S3'
I0
I1
tRp58
(I3
S'|'
NNNI3
I1
I0
tbI00
S'29%09%45%'
tbag4
(g5
(I0
tS'b'
tRp59
(I1
(I3
tg7
(S'S3'
I0
I1
tRp60
(I3
S'|'
NNNI3
I1
I0
tbI00
S'74%66%65%'
tbag4
(g5
(I0
tS'b'
tRp61
(I1
(I3
tg7
(S'S3'
I0
I1
tRp62
(I3
S'|'
NNNI3
I1
I0
tbI00
S'66%72%41%'
tbag4
(g5
(I0
tS'b'
tRp63
(I1
(I3
tg7
(S'S3'
I0
I1
tRp64
(I3
S'|'
NNNI3
I1
I0
tbI00
S'66%72%41%'
tbag4
(g5
(I0
tS'b'
tRp65
(I1
(I3
tg7
(S'S3'
I0
I1
tRp66
(I3
S'|'
NNNI3
I1
I0
tbI00
S'86%27%02%'
tbag4
(g5
(I0
tS'b'
tRp67
(I1
(I3
tg7
(S'S3'
I0
I1
tRp68
(I3
S'|'
NNNI3
I1
I0
tbI00
S'86%27%02%'
tbasS'ceafe'
p69
(lp70
g4
(g5
(I0
tS'b'
tRp71
(I1
(I3
tg7
(S'S2'
I0
I1
tRp72
(I3
S'|'
NNNI2
I1
I0
tbI00
S'0%0%0%'
tbag4
(g5
(I0
tS'b'
tRp73
(I1
(I3
tg7
(S'S2'
I0
I1
tRp74
(I3
S'|'
NNNI2
I1
I0
tbI00
S'0%0%0%'
tbag4
(g5
(I0
tS'b'
tRp75
(I1
(I3
tg7
(S'S3'
I0
I1
tRp76
(I3
S'|'
NNNI3
I1
I0
tbI00
S'24%67%24%'
tbag4
(g5
(I0
tS'b'
tRp77
(I1
(I3
tg7
(S'S3'
I0
I1
tRp78
(I3
S'|'
NNNI3
I1
I0
tbI00
S'36%42%77%'
tbag4
(g5
(I0
tS'b'
tRp79
(I1
(I3
tg7
(S'S3'
I0
I1
tRp80
(I3
S'|'
NNNI3
I1
I0
tbI00
S'55%93%6%\x00'
tbag4
(g5
(I0
tS'b'
tRp81
(I1
(I3
tg7
(S'S3'
I0
I1
tRp82
(I3
S'|'
NNNI3
I1
I0
tbI00
S'55%93%6%\x00'
tbag4
(g5
(I0
tS'b'
tRp83
(I1
(I3
tg7
(S'S3'
I0
I1
tRp84
(I3
S'|'
NNNI3
I1
I0
tbI00
S'88%34%74%'
tbag4
(g5
(I0
tS'b'
tRp85
(I1
(I3
tg7
(S'S3'
I0
I1
tRp86
(I3
S'|'
NNNI3
I1
I0
tbI00
S'88%34%74%'
tbasS'blanc'
p87
(lp88
g4
(g5
(I0
tS'b'
tRp89
(I1
(I3
tg7
(S'S2'
I0
I1
tRp90
(I3
S'|'
NNNI2
I1
I0
tbI00
S'0%0%0%'
tbag4
(g5
(I0
tS'b'
tRp91
(I1
(I3
tg7
(S'S2'
I0
I1
tRp92
(I3
S'|'
NNNI2
I1
I0
tbI00
S'0%0%0%'
tbag4
(g5
(I0
tS'b'
tRp93
(I1
(I3
tg7
(S'S3'
I0
I1
tRp94
(I3
S'|'
NNNI3
I1
I0
tbI00
S'15%91%4%\x00'
tbag4
(g5
(I0
tS'b'
tRp95
(I1
(I3
tg7
(S'S3'
I0
I1
tRp96
(I3
S'|'
NNNI3
I1
I0
tbI00
S'65%65%38%'
tbag4
(g5
(I0
tS'b'
tRp97
(I1
(I3
tg7
(S'S3'
I0
I1
tRp98
(I3
S'|'
NNNI3
I1
I0
tbI00
S'38%57%58%'
tbag4
(g5
(I0
tS'b'
tRp99
(I1
(I3
tg7
(S'S3'
I0
I1
tRp100
(I3
S'|'
NNNI3
I1
I0
tbI00
S'38%57%58%'
tbag4
(g5
(I0
tS'b'
tRp101
(I1
(I3
tg7
(S'S3'
I0
I1
tRp102
(I3
S'|'
NNNI3
I1
I0
tbI00
S'58%21%78%'
tbag4
(g5
(I0
tS'b'
tRp103
(I1
(I3
tg7
(S'S3'
I0
I1
tRp104
(I3
S'|'
NNNI3
I1
I0
tbI00
S'58%21%78%'
tbas.