(dp1
S'bcub'
p2
(lp3
cnumpy.core.multiarray
_reconstruct
p4
(cnumpy
ndarray
p5
(I0
tS'b'
tRp6
(I1
(I3
tcnumpy
dtype
p7
(S'S2'
I0
I1
tRp8
(I3
S'|'
NNNI2
I1
I0
tbI00
S'0%0%0%'
tbag4
(g5
(I0
tS'b'
tRp9
(I1
(I3
tg7
(S'S2'
I0
I1
tRp10
(I3
S'|'
NNNI2
I1
I0
tbI00
S'0%0%0%'
tbag4
(g5
(I0
tS'b'
tRp11
(I1
(I3
tg7
(S'S3'
I0
I1
tRp12
(I3
S'|'
NNNI3
I1
I0
tbI00
S'93%47%15%'
tbag4
(g5
(I0
tS'b'
tRp13
(I1
(I3
tg7
(S'S3'
I0
I1
tRp14
(I3
S'|'
NNNI3
I1
I0
tbI00
S'44%98%23%'
tbag4
(g5
(I0
tS'b'
tRp15
(I1
(I3
tg7
(S'S3'
I0
I1
tRp16
(I3
S'|'
NNNI3
I1
I0
tbI00
S'19%88%01%'
tbag4
(g5
(I0
tS'b'
tRp17
(I1
(I3
tg7
(S'S3'
I0
I1
tRp18
(I3
S'|'
NNNI3
I1
I0
tbI00
S'19%88%01%'
tbag4
(g5
(I0
tS'b'
tRp19
(I1
(I3
tg7
(S'S3'
I0
I1
tRp20
(I3
S'|'
NNNI3
I1
I0
tbI00
S'71%84%48%'
tbag4
(g5
(I0
tS'b'
tRp21
(I1
(I3
tg7
(S'S3'
I0
I1
tRp22
(I3
S'|'
NNNI3
I1
I0
tbI00
S'71%84%48%'
tbag4
(g5
(I0
tS'b'
tRp23
(I1
(I3
tg7
(S'S3'
I0
I1
tRp24
(I3
S'|'
NNNI3
I1
I0
tbI00
S'4%\x0042%2%\x00'
tbag4
(g5
(I0
tS'b'
tRp25
(I1
(I3
tg7
(S'S3'
I0
I1
tRp26
(I3
S'|'
NNNI3
I1
I0
tbI00
S'4%\x0042%2%\x00'
tbag4
(g5
(I0
tS'b'
tRp27
(I1
(I3
tg7
(S'S3'
I0
I1
tRp28
(I3
S'|'
NNNI3
I1
I0
tbI00
S'43%19%01%'
tbasS'order_list'
p29
(lp30
S'test_sieve'
p31
aS'exact_match'
p32
aS'precise_constructs'
p33
aS'strict_head_matching_A'
p34
aS'strict_head_matching_B'
p35
aS'strict_head_matching_C'
p36
aS'relaxing_head_matching'
p37
aS'pronoun_sieve'
p38
aS'proper_header_word_match_sieve'
p39
aS'discourse_processing'
p40
aS'other_sieve'
p41
asS'ceafm'
p42
(lp43
g4
(g5
(I0
tS'b'
tRp44
(I1
(I3
tg7
(S'S2'
I0
I1
tRp45
(I3
S'|'
NNNI2
I1
I0
tbI00
S'0%0%0%'
tbag4
(g5
(I0
tS'b'
tRp46
(I1
(I3
tg7
(S'S2'
I0
I1
tRp47
(I3
S'|'
NNNI2
I1
I0
tbI00
S'0%0%0%'
tbag4
(g5
(I0
tS'b'
tRp48
(I1
(I3
tg7
(S'S3'
I0
I1
tRp49
(I3
S'|'
NNNI3
I1
I0
tbI00
S'9%\x0003%43%'
tbag4
(g5
(I0
tS'b'
tRp50
(I1
(I3
tg7
(S'S3'
I0
I1
tRp51
(I3
S'|'
NNNI3
I1
I0
tbI00
S'76%53%87%'
tbag4
(g5
(I0
tS'b'
tRp52
(I1
(I3
tg7
(S'S3'
I0
I1
tRp53
(I3
S'|'
NNNI3
I1
I0
tbI00
S'92%1%\x0092%'
tbag4
(g5
(I0
tS'b'
tRp54
(I1
(I3
tg7
(S'S3'
I0
I1
tRp55
(I3
S'|'
NNNI3
I1
I0
tbI00
S'92%1%\x0092%'
tbag4
(g5
(I0
tS'b'
tRp56
(I1
(I3
tg7
(S'S3'
I0
I1
tRp57
(I3
S'|'
NNNI3
I1
I0
tbI00
S'76%1%\x0057%'
tbag4
(g5
(I0
tS'b'
tRp58
(I1
(I3
tg7
(S'S3'
I0
I1
tRp59
(I3
S'|'
NNNI3
I1
I0
tbI00
S'76%1%\x0057%'
tbag4
(g5
(I0
tS'b'
tRp60
(I1
(I3
tg7
(S'S3'
I0
I1
tRp61
(I3
S'|'
NNNI3
I1
I0
tbI00
S'15%89%91%'
tbag4
(g5
(I0
tS'b'
tRp62
(I1
(I3
tg7
(S'S3'
I0
I1
tRp63
(I3
S'|'
NNNI3
I1
I0
tbI00
S'15%89%91%'
tbag4
(g5
(I0
tS'b'
tRp64
(I1
(I3
tg7
(S'S3'
I0
I1
tRp65
(I3
S'|'
NNNI3
I1
I0
tbI00
S'22%57%14%'
tbasS'muc'
p66
(lp67
g4
(g5
(I0
tS'b'
tRp68
(I1
(I3
tg7
(S'S2'
I0
I1
tRp69
(I3
S'|'
NNNI2
I1
I0
tbI00
S'0%0%0%'
tbag4
(g5
(I0
tS'b'
tRp70
(I1
(I3
tg7
(S'S2'
I0
I1
tRp71
(I3
S'|'
NNNI2
I1
I0
tbI00
S'0%0%0%'
tbag4
(g5
(I0
tS'b'
tRp72
(I1
(I3
tg7
(S'S3'
I0
I1
tRp73
(I3
S'|'
NNNI3
I1
I0
tbI00
S'29%09%45%'
tbag4
(g5
(I0
tS'b'
tRp74
(I1
(I3
tg7
(S'S3'
I0
I1
tRp75
(I3
S'|'
NNNI3
I1
I0
tbI00
S'74%66%65%'
tbag4
(g5
(I0
tS'b'
tRp76
(I1
(I3
tg7
(S'S3'
I0
I1
tRp77
(I3
S'|'
NNNI3
I1
I0
tbI00
S'66%72%41%'
tbag4
(g5
(I0
tS'b'
tRp78
(I1
(I3
tg7
(S'S3'
I0
I1
tRp79
(I3
S'|'
NNNI3
I1
I0
tbI00
S'66%72%41%'
tbag4
(g5
(I0
tS'b'
tRp80
(I1
(I3
tg7
(S'S3'
I0
I1
tRp81
(I3
S'|'
NNNI3
I1
I0
tbI00
S'86%27%02%'
tbag4
(g5
(I0
tS'b'
tRp82
(I1
(I3
tg7
(S'S3'
I0
I1
tRp83
(I3
S'|'
NNNI3
I1
I0
tbI00
S'86%27%02%'
tbag4
(g5
(I0
tS'b'
tRp84
(I1
(I3
tg7
(S'S3'
I0
I1
tRp85
(I3
S'|'
NNNI3
I1
I0
tbI00
S'83%81%53%'
tbag4
(g5
(I0
tS'b'
tRp86
(I1
(I3
tg7
(S'S3'
I0
I1
tRp87
(I3
S'|'
NNNI3
I1
I0
tbI00
S'83%81%53%'
tbag4
(g5
(I0
tS'b'
tRp88
(I1
(I3
tg7
(S'S3'
I0
I1
tRp89
(I3
S'|'
NNNI3
I1
I0
tbI00
S'64%3%\x0037%'
tbasS'ceafe'
p90
(lp91
g4
(g5
(I0
tS'b'
tRp92
(I1
(I3
tg7
(S'S2'
I0
I1
tRp93
(I3
S'|'
NNNI2
I1
I0
tbI00
S'0%0%0%'
tbag4
(g5
(I0
tS'b'
tRp94
(I1
(I3
tg7
(S'S2'
I0
I1
tRp95
(I3
S'|'
NNNI2
I1
I0
tbI00
S'0%0%0%'
tbag4
(g5
(I0
tS'b'
tRp96
(I1
(I3
tg7
(S'S3'
I0
I1
tRp97
(I3
S'|'
NNNI3
I1
I0
tbI00
S'24%67%24%'
tbag4
(g5
(I0
tS'b'
tRp98
(I1
(I3
tg7
(S'S3'
I0
I1
tRp99
(I3
S'|'
NNNI3
I1
I0
tbI00
S'36%42%77%'
tbag4
(g5
(I0
tS'b'
tRp100
(I1
(I3
tg7
(S'S3'
I0
I1
tRp101
(I3
S'|'
NNNI3
I1
I0
tbI00
S'55%93%6%\x00'
tbag4
(g5
(I0
tS'b'
tRp102
(I1
(I3
tg7
(S'S3'
I0
I1
tRp103
(I3
S'|'
NNNI3
I1
I0
tbI00
S'55%93%6%\x00'
tbag4
(g5
(I0
tS'b'
tRp104
(I1
(I3
tg7
(S'S3'
I0
I1
tRp105
(I3
S'|'
NNNI3
I1
I0
tbI00
S'88%34%74%'
tbag4
(g5
(I0
tS'b'
tRp106
(I1
(I3
tg7
(S'S3'
I0
I1
tRp107
(I3
S'|'
NNNI3
I1
I0
tbI00
S'88%34%74%'
tbag4
(g5
(I0
tS'b'
tRp108
(I1
(I3
tg7
(S'S3'
I0
I1
tRp109
(I3
S'|'
NNNI3
I1
I0
tbI00
S'1%\x0047%4%\x00'
tbag4
(g5
(I0
tS'b'
tRp110
(I1
(I3
tg7
(S'S3'
I0
I1
tRp111
(I3
S'|'
NNNI3
I1
I0
tbI00
S'1%\x0047%4%\x00'
tbag4
(g5
(I0
tS'b'
tRp112
(I1
(I3
tg7
(S'S3'
I0
I1
tRp113
(I3
S'|'
NNNI3
I1
I0
tbI00
S'88%47%82%'
tbasS'blanc'
p114
(lp115
g4
(g5
(I0
tS'b'
tRp116
(I1
(I3
tg7
(S'S2'
I0
I1
tRp117
(I3
S'|'
NNNI2
I1
I0
tbI00
S'0%0%0%'
tbag4
(g5
(I0
tS'b'
tRp118
(I1
(I3
tg7
(S'S2'
I0
I1
tRp119
(I3
S'|'
NNNI2
I1
I0
tbI00
S'0%0%0%'
tbag4
(g5
(I0
tS'b'
tRp120
(I1
(I3
tg7
(S'S3'
I0
I1
tRp121
(I3
S'|'
NNNI3
I1
I0
tbI00
S'15%91%4%\x00'
tbag4
(g5
(I0
tS'b'
tRp122
(I1
(I3
tg7
(S'S3'
I0
I1
tRp123
(I3
S'|'
NNNI3
I1
I0
tbI00
S'65%65%38%'
tbag4
(g5
(I0
tS'b'
tRp124
(I1
(I3
tg7
(S'S3'
I0
I1
tRp125
(I3
S'|'
NNNI3
I1
I0
tbI00
S'38%57%58%'
tbag4
(g5
(I0
tS'b'
tRp126
(I1
(I3
tg7
(S'S3'
I0
I1
tRp127
(I3
S'|'
NNNI3
I1
I0
tbI00
S'38%57%58%'
tbag4
(g5
(I0
tS'b'
tRp128
(I1
(I3
tg7
(S'S3'
I0
I1
tRp129
(I3
S'|'
NNNI3
I1
I0
tbI00
S'58%21%78%'
tbag4
(g5
(I0
tS'b'
tRp130
(I1
(I3
tg7
(S'S3'
I0
I1
tRp131
(I3
S'|'
NNNI3
I1
I0
tbI00
S'58%21%78%'
tbag4
(g5
(I0
tS'b'
tRp132
(I1
(I3
tg7
(S'S3'
I0
I1
tRp133
(I3
S'|'
NNNI3
I1
I0
tbI00
S'18%31%62%'
tbag4
(g5
(I0
tS'b'
tRp134
(I1
(I3
tg7
(S'S3'
I0
I1
tRp135
(I3
S'|'
NNNI3
I1
I0
tbI00
S'18%31%62%'
tbag4
(g5
(I0
tS'b'
tRp136
(I1
(I3
tg7
(S'S3'
I0
I1
tRp137
(I3
S'|'
NNNI3
I1
I0
tbI00
S'49%83%76%'
tbas.